; ModuleID = '4/65.c'
source_filename = "4/65.c"
target datalayout = "e-m:e-p270:32:32-p271:32:32-p272:64:64-i64:64-f80:128-n8:16:32:64-S128"
target triple = "x86_64-pc-linux-gnu"

@.str = private unnamed_addr constant [6 x i8] c"%d %d\00", align 1
@.str.1 = private unnamed_addr constant [3 x i8] c"%d\00", align 1
@.str.2 = private unnamed_addr constant [4 x i8] c"\0A%d\00", align 1

; Function Attrs: noinline nounwind uwtable
define dso_local i32 @main() #0 {
  %1 = alloca i32, align 4
  %2 = alloca i32, align 4
  %3 = alloca i32, align 4
  %4 = alloca i32, align 4
  %5 = alloca i32, align 4
  %6 = alloca i32, align 4
  %7 = alloca i32**, align 8
  %8 = alloca i32**, align 8
  store i32 0, i32* %1, align 4
  %9 = call noalias i8* @malloc(i64 800) #3
  %10 = bitcast i8* %9 to i32**
  store i32** %10, i32*** %7, align 8
  store i32 0, i32* %2, align 4
  br label %11

11:                                               ; preds = %21, %0
  %12 = load i32, i32* %2, align 4
  %13 = icmp slt i32 %12, 100
  br i1 %13, label %14, label %24

14:                                               ; preds = %11
  %15 = call noalias i8* @malloc(i64 400) #3
  %16 = bitcast i8* %15 to i32*
  %17 = load i32**, i32*** %7, align 8
  %18 = load i32, i32* %2, align 4
  %19 = sext i32 %18 to i64
  %20 = getelementptr inbounds i32*, i32** %17, i64 %19
  store i32* %16, i32** %20, align 8
  br label %21

21:                                               ; preds = %14
  %22 = load i32, i32* %2, align 4
  %23 = add nsw i32 %22, 1
  store i32 %23, i32* %2, align 4
  br label %11

24:                                               ; preds = %11
  %25 = call i32 (i8*, ...) @__isoc99_scanf(i8* getelementptr inbounds ([6 x i8], [6 x i8]* @.str, i64 0, i64 0), i32* %5, i32* %6)
  store i32 0, i32* %2, align 4
  br label %26

26:                                               ; preds = %49, %24
  %27 = load i32, i32* %2, align 4
  %28 = load i32, i32* %5, align 4
  %29 = icmp slt i32 %27, %28
  br i1 %29, label %30, label %52

30:                                               ; preds = %26
  store i32 0, i32* %3, align 4
  br label %31

31:                                               ; preds = %45, %30
  %32 = load i32, i32* %3, align 4
  %33 = load i32, i32* %6, align 4
  %34 = icmp slt i32 %32, %33
  br i1 %34, label %35, label %48

35:                                               ; preds = %31
  %36 = load i32**, i32*** %7, align 8
  %37 = load i32, i32* %2, align 4
  %38 = sext i32 %37 to i64
  %39 = getelementptr inbounds i32*, i32** %36, i64 %38
  %40 = load i32*, i32** %39, align 8
  %41 = load i32, i32* %3, align 4
  %42 = sext i32 %41 to i64
  %43 = getelementptr inbounds i32, i32* %40, i64 %42
  %44 = call i32 (i8*, ...) @__isoc99_scanf(i8* getelementptr inbounds ([3 x i8], [3 x i8]* @.str.1, i64 0, i64 0), i32* %43)
  br label %45

45:                                               ; preds = %35
  %46 = load i32, i32* %3, align 4
  %47 = add nsw i32 %46, 1
  store i32 %47, i32* %3, align 4
  br label %31

48:                                               ; preds = %31
  br label %49

49:                                               ; preds = %48
  %50 = load i32, i32* %2, align 4
  %51 = add nsw i32 %50, 1
  store i32 %51, i32* %2, align 4
  br label %26

52:                                               ; preds = %26
  store i32 0, i32* %2, align 4
  br label %53

53:                                               ; preds = %114, %52
  %54 = load i32, i32* %2, align 4
  %55 = load i32, i32* %5, align 4
  %56 = load i32, i32* %6, align 4
  %57 = add nsw i32 %55, %56
  %58 = sub nsw i32 %57, 1
  %59 = icmp slt i32 %54, %58
  br i1 %59, label %60, label %117

60:                                               ; preds = %53
  store i32 0, i32* %3, align 4
  br label %61

61:                                               ; preds = %110, %60
  %62 = load i32, i32* %3, align 4
  %63 = load i32, i32* %2, align 4
  %64 = icmp sle i32 %62, %63
  br i1 %64, label %65, label %113

65:                                               ; preds = %61
  %66 = load i32, i32* %3, align 4
  %67 = load i32, i32* %5, align 4
  %68 = icmp slt i32 %66, %67
  br i1 %68, label %69, label %109

69:                                               ; preds = %65
  %70 = load i32, i32* %2, align 4
  %71 = load i32, i32* %3, align 4
  %72 = sub nsw i32 %70, %71
  %73 = load i32, i32* %6, align 4
  %74 = icmp slt i32 %72, %73
  br i1 %74, label %75, label %109

75:                                               ; preds = %69
  %76 = load i32, i32* %2, align 4
  %77 = icmp eq i32 %76, 0
  br i1 %77, label %78, label %93

78:                                               ; preds = %75
  %79 = load i32**, i32*** %7, align 8
  %80 = load i32, i32* %3, align 4
  %81 = sext i32 %80 to i64
  %82 = getelementptr inbounds i32*, i32** %79, i64 %81
  %83 = load i32*, i32** %82, align 8
  %84 = load i32, i32* %2, align 4
  %85 = sext i32 %84 to i64
  %86 = getelementptr inbounds i32, i32* %83, i64 %85
  %87 = load i32, i32* %3, align 4
  %88 = sext i32 %87 to i64
  %89 = sub i64 0, %88
  %90 = getelementptr inbounds i32, i32* %86, i64 %89
  %91 = load i32, i32* %90, align 4
  %92 = call i32 (i8*, ...) @printf(i8* getelementptr inbounds ([3 x i8], [3 x i8]* @.str.1, i64 0, i64 0), i32 %91)
  br label %108

93:                                               ; preds = %75
  %94 = load i32**, i32*** %7, align 8
  %95 = load i32, i32* %3, align 4
  %96 = sext i32 %95 to i64
  %97 = getelementptr inbounds i32*, i32** %94, i64 %96
  %98 = load i32*, i32** %97, align 8
  %99 = load i32, i32* %2, align 4
  %100 = sext i32 %99 to i64
  %101 = getelementptr inbounds i32, i32* %98, i64 %100
  %102 = load i32, i32* %3, align 4
  %103 = sext i32 %102 to i64
  %104 = sub i64 0, %103
  %105 = getelementptr inbounds i32, i32* %101, i64 %104
  %106 = load i32, i32* %105, align 4
  %107 = call i32 (i8*, ...) @printf(i8* getelementptr inbounds ([4 x i8], [4 x i8]* @.str.2, i64 0, i64 0), i32 %106)
  br label %108

108:                                              ; preds = %93, %78
  br label %109

109:                                              ; preds = %108, %69, %65
  br label %110

110:                                              ; preds = %109
  %111 = load i32, i32* %3, align 4
  %112 = add nsw i32 %111, 1
  store i32 %112, i32* %3, align 4
  br label %61

113:                                              ; preds = %61
  br label %114

114:                                              ; preds = %113
  %115 = load i32, i32* %2, align 4
  %116 = add nsw i32 %115, 1
  store i32 %116, i32* %2, align 4
  br label %53

117:                                              ; preds = %53
  ret i32 0
}

; Function Attrs: nounwind
declare dso_local noalias i8* @malloc(i64) #1

declare dso_local i32 @__isoc99_scanf(i8*, ...) #2

declare dso_local i32 @printf(i8*, ...) #2


!llvm.module.flags = !{!0}
!llvm.ident = !{!1}

!0 = !{i32 1, !"wchar_size", i32 4}
!1 = !{!"clang version 10.0.0-4ubuntu1 "}
